target datalayout = "e-m:e-p270:32:32-p271:32:32-p272:64:64-i64:64-i128:128-f80:128-n8:16:32:64-S128"
target triple = "x86_64-pc-linux-gnu"

%struct.SN_env = type { ptr, i32, i32, i32, i32, i32, ptr, ptr }

; Function Attrs: nounwind uwtable
define internal i32 @r_mark_yUz(ptr noundef %0) #0 {
  %2 = alloca i32, align 4
  %3 = alloca ptr, align 8
  %4 = alloca i32, align 4
  %5 = alloca i32, align 4
  %6 = alloca i32, align 4
  store ptr %0, ptr %3, align 8
  call void @llvm.lifetime.start.p0(i64 4, ptr %4) #3
  %7 = load ptr, ptr %3, align 8
  %8 = call i32 @r_check_vowel_harmony(ptr noundef %7)
  store i32 %8, ptr %4, align 4
  %9 = load i32, ptr %4, align 4
  %10 = icmp sle i32 %9, 0
  br i1 %10, label %11, label %13

11:                                               ; preds = %1
  %12 = load i32, ptr %4, align 4
  store i32 %12, ptr %2, align 4
  store i32 1, ptr %5, align 4
  br label %14

13:                                               ; preds = %1
  store i32 0, ptr %5, align 4
  br label %14

14:                                               ; preds = %13, %11
  call void @llvm.lifetime.end.p0(i64 4, ptr %4) #3
  %15 = load i32, ptr %5, align 4
  switch i32 %15, label %57 [
    i32 0, label %16
    i32 1, label %55
  ]

16:                                               ; preds = %14
  %17 = load ptr, ptr %3, align 8
  %18 = getelementptr inbounds nuw %struct.SN_env, ptr %17, i32 0, i32 1
  %19 = load i32, ptr %18, align 8
  %20 = sub i32 %19, 1
  %21 = load ptr, ptr %3, align 8
  %22 = getelementptr inbounds nuw %struct.SN_env, ptr %21, i32 0, i32 3
  %23 = load i32, ptr %22, align 8
  %24 = icmp sle i32 %20, %23
  br i1 %24, label %38, label %25

25:                                               ; preds = %16
  %26 = load ptr, ptr %3, align 8
  %27 = getelementptr inbounds nuw %struct.SN_env, ptr %26, i32 0, i32 0
  %28 = load ptr, ptr %27, align 8
  %29 = load ptr, ptr %3, align 8
  %30 = getelementptr inbounds nuw %struct.SN_env, ptr %29, i32 0, i32 1
  %31 = load i32, ptr %30, align 8
  %32 = sub i32 %31, 1
  %33 = sext i32 %32 to i64
  %34 = getelementptr inbounds i8, ptr %28, i64 %33
  %35 = load i8, ptr %34, align 1
  %36 = zext i8 %35 to i32
  %37 = icmp ne i32 %36, 122
  br i1 %37, label %38, label %39

38:                                               ; preds = %25, %16
  store i32 0, ptr %2, align 4
  br label %55

39:                                               ; preds = %25
  %40 = load ptr, ptr %3, align 8
  %41 = call i32 @find_among_b(ptr noundef %40, ptr noundef @a_14, i32 noundef 4)
  %42 = icmp ne i32 %41, 0
  br i1 %42, label %44, label %43

43:                                               ; preds = %39
  store i32 0, ptr %2, align 4
  br label %55

44:                                               ; preds = %39
  call void @llvm.lifetime.start.p0(i64 4, ptr %6) #3
  %45 = load ptr, ptr %3, align 8
  %46 = call i32 @r_mark_suffix_with_optional_y_consonant(ptr noundef %45)
  store i32 %46, ptr %6, align 4
  %47 = load i32, ptr %6, align 4
  %48 = icmp sle i32 %47, 0
  br i1 %48, label %49, label %51

49:                                               ; preds = %44
  %50 = load i32, ptr %6, align 4
  store i32 %50, ptr %2, align 4
  store i32 1, ptr %5, align 4
  br label %52

51:                                               ; preds = %44
  store i32 0, ptr %5, align 4
  br label %52

52:                                               ; preds = %51, %49
  call void @llvm.lifetime.end.p0(i64 4, ptr %6) #3
  %53 = load i32, ptr %5, align 4
  switch i32 %53, label %57 [
    i32 0, label %54
    i32 1, label %55
  ]

54:                                               ; preds = %52
  store i32 1, ptr %2, align 4
  br label %55

55:                                               ; preds = %54, %52, %43, %38, %14
  %56 = load i32, ptr %2, align 4
  ret i32 %56

57:                                               ; preds = %52, %14
  unreachable
}